; Function Attrs: mustprogress nofree norecurse nosync nounwind willreturn memory(read, argmem: readwrite, inaccessiblemem: none) uwtable
define hidden ptr @_PyFunction_LookupByVersion(i32 noundef %0, ptr noundef writeonly captures(none) %1) local_unnamed_addr #4 {
  %3 = tail call align 8 ptr @llvm.threadlocal.address.p0(ptr align 8 @_Py_tss_tstate)
  %4 = load ptr, ptr %3, align 8, !tbaa !4
  %5 = getelementptr inbounds nuw i8, ptr %4, i64 16
  %6 = load ptr, ptr %5, align 8, !tbaa !9
  %7 = getelementptr inbounds nuw i8, ptr %6, i64 14112
  %8 = and i32 %0, 4095
  %9 = zext nneg i32 %8 to i64
  %10 = getelementptr %struct._func_version_cache_item, ptr %7, i64 %9
  %11 = getelementptr inbounds nuw i8, ptr %10, i64 8
  %12 = load ptr, ptr %11, align 8, !tbaa !139
  %.not = icmp eq ptr %12, null
  br i1 %.not, label %.sink.split, label %13

13:                                               ; preds = %2
  %14 = getelementptr inbounds nuw i8, ptr %12, i64 92
  %15 = load i32, ptr %14, align 4, !tbaa !140
  %16 = icmp eq i32 %15, %0
  br i1 %16, label %.sink.split, label %17

.sink.split:                                      ; preds = %2, %13
  %.sink = phi ptr [ %12, %13 ], [ null, %2 ]
  store ptr %.sink, ptr %1, align 8, !tbaa !96
  br label %17

17:                                               ; preds = %.sink.split, %13
  %18 = load ptr, ptr %10, align 8, !tbaa !137
  %.not15 = icmp eq ptr %18, null
  br i1 %.not15, label %23, label %19

19:                                               ; preds = %17
  %20 = getelementptr inbounds nuw i8, ptr %18, i64 144
  %21 = load i32, ptr %20, align 8, !tbaa !119
  %22 = icmp eq i32 %21, %0
  br i1 %22, label %24, label %23

23:                                               ; preds = %19, %17
  br label %24

24:                                               ; preds = %19, %23
  %.0 = phi ptr [ null, %23 ], [ %18, %19 ]
  ret ptr %.0
}